Certificate:
    Data:
        Version: 3 (0x2)
        Serial Number:
            26:58:73:6b:91:f4:96:10:ac:3e:30:cf:e5:6a:6e:b5
        Signature Algorithm: sha256WithRSAEncryption
        Issuer: CN=cn_nJEC22E2cryasDdT
        Validity
            Not Before: Sep 16 18:01:27 2024 GMT
            Not After : Sep 14 18:01:27 2034 GMT
        Subject: CN=samir
        Subject Public Key Info:
            Public Key Algorithm: rsaEncryption
                Public-Key: (2048 bit)
                Modulus:
                    00:ac:eb:48:44:d2:71:69:a6:5e:b0:a6:dc:f4:6b:
                    af:d6:66:7d:23:aa:1c:57:cf:34:ac:ae:c3:f4:09:
                    b9:7a:5b:60:65:c0:35:f6:22:55:37:66:78:5b:e4:
                    09:eb:62:cd:4a:d1:3d:a0:d6:ba:05:98:d5:ae:2b:
                    a2:ec:b7:5d:20:0f:82:16:d8:49:d4:6e:de:96:84:
                    ca:8d:5c:22:9d:23:49:c2:09:df:41:ab:11:07:e0:
                    fa:6e:82:05:be:e0:82:bc:c4:46:2f:c9:e3:e3:10:
                    0a:e0:c6:55:28:11:d2:03:72:c5:8b:ce:1c:7c:cd:
                    cd:d8:70:5b:54:ca:ee:d4:f0:41:7f:11:b6:a7:40:
                    4b:4c:6f:f0:fa:4b:d6:52:41:d6:fb:83:d1:2f:54:
                    87:91:d8:6e:37:56:d0:1d:14:e3:e3:6f:8c:10:01:
                    7e:38:ff:37:c1:34:3c:5a:5a:c1:82:7e:e9:34:e2:
                    d2:60:52:16:dd:3f:7f:6d:a5:c5:51:99:ad:1a:f3:
                    43:60:2e:d2:e6:48:f2:b1:d3:fc:e8:30:23:de:09:
                    6b:94:2c:3c:ea:27:8d:55:a9:67:d6:fd:f9:f1:08:
                    ca:76:23:e3:03:6c:5f:60:19:13:d7:95:d7:5d:c3:
                    17:28:19:ee:a5:9c:ef:78:e6:41:f3:2f:45:04:20:
                    95:c7
                Exponent: 65537 (0x10001)
        X509v3 extensions:
            X509v3 Basic Constraints: 
                CA:FALSE
            X509v3 Subject Key Identifier: 
                C1:D7:5D:70:61:E2:2B:E5:7D:D0:D8:E9:1F:91:95:56:C0:77:24:97
            X509v3 Authority Key Identifier: 
                keyid:41:DC:6A:FE:B5:C1:F3:90:1A:8C:F5:A4:89:B9:02:53:0C:40:FE:CC
                DirName:/CN=cn_nJEC22E2cryasDdT
                serial:38:97:C8:28:BD:B8:C0:A6:B2:EC:80:7D:B3:A9:92:1C:F8:09:F6:20
            X509v3 Extended Key Usage: 
                TLS Web Client Authentication
            X509v3 Key Usage: 
                Digital Signature
    Signature Algorithm: sha256WithRSAEncryption
    Signature Value:
        1f:8f:eb:3d:02:93:d1:5d:f4:22:46:d6:71:97:ec:1c:cd:16:
        27:e2:c2:a6:d2:84:f3:5f:ec:44:25:60:f7:a7:0e:9d:1a:db:
        ee:cc:06:18:bf:6b:3a:90:11:38:44:a6:81:8e:f6:66:c5:bb:
        11:dd:2d:7d:10:68:2c:4b:6c:22:af:41:39:4e:92:a6:e2:62:
        cb:66:21:76:a4:00:a0:5e:ab:18:fb:8f:af:bd:18:79:e2:ac:
        28:17:5c:1c:9b:ea:a4:1d:7a:92:60:4a:98:b7:09:d0:9b:93:
        3e:29:48:c6:9d:45:f5:bb:f2:65:14:88:20:95:46:f6:00:ef:
        07:68:d2:a3:2d:39:db:38:52:88:52:72:c3:f6:ec:9a:11:8c:
        3d:a6:ee:da:d4:79:a9:4b:ac:28:a8:fb:ac:6a:f8:db:14:6f:
        a1:5b:99:e9:11:7e:d7:2c:34:05:74:0c:38:81:35:f4:00:6f:
        f9:52:e8:0e:23:ca:7b:53:e0:9d:c3:29:67:08:7b:77:5f:93:
        38:f2:5d:77:04:a7:88:f4:75:5d:2c:3d:fa:f6:82:34:0d:bd:
        56:39:26:2a:b7:7d:c4:01:57:66:aa:23:29:ea:a1:20:b1:cc:
        13:70:30:bb:af:b0:d5:06:86:d3:bc:3b:3f:88:11:f6:e2:fd:
        c4:eb:f1:2d
-----BEGIN CERTIFICATE-----
MIIDYzCCAkugAwIBAgIQJlhza5H0lhCsPjDP5WputTANBgkqhkiG9w0BAQsFADAe
MRwwGgYDVQQDDBNjbl9uSkVDMjJFMmNyeWFzRGRUMB4XDTI0MDkxNjE4MDEyN1oX
DTM0MDkxNDE4MDEyN1owEDEOMAwGA1UEAwwFc2FtaXIwggEiMA0GCSqGSIb3DQEB
AQUAA4IBDwAwggEKAoIBAQCs60hE0nFppl6wptz0a6/WZn0jqhxXzzSsrsP0Cbl6
W2BlwDX2IlU3Znhb5AnrYs1K0T2g1roFmNWuK6Lst10gD4IW2EnUbt6WhMqNXCKd
I0nCCd9BqxEH4PpuggW+4IK8xEYvyePjEArgxlUoEdIDcsWLzhx8zc3YcFtUyu7U
8EF/EbanQEtMb/D6S9ZSQdb7g9EvVIeR2G43VtAdFOPjb4wQAX44/zfBNDxaWsGC
fuk04tJgUhbdP39tpcVRma0a80NgLtLmSPKx0/zoMCPeCWuULDzqJ41VqWfW/fnx
CMp2I+MDbF9gGRPXldddwxcoGe6lnO945kHzL0UEIJXHAgMBAAGjgaowgacwCQYD
VR0TBAIwADAdBgNVHQ4EFgQUwdddcGHiK+V90NjpH5GVVsB3JJcwWQYDVR0jBFIw
UIAUQdxq/rXB85AajPWkibkCUwxA/syhIqQgMB4xHDAaBgNVBAMME2NuX25KRUMy
MkUyY3J5YXNEZFSCFDiXyCi9uMCmsuyAfbOpkhz4CfYgMBMGA1UdJQQMMAoGCCsG
AQUFBwMCMAsGA1UdDwQEAwIHgDANBgkqhkiG9w0BAQsFAAOCAQEAH4/rPQKT0V30
IkbWcZfsHM0WJ+LCptKE81/sRCVg96cOnRrb7swGGL9rOpAROESmgY72ZsW7Ed0t
fRBoLEtsIq9BOU6SpuJiy2YhdqQAoF6rGPuPr70YeeKsKBdcHJvqpB16kmBKmLcJ
0JuTPilIxp1F9bvyZRSIIJVG9gDvB2jSoy052zhSiFJyw/bsmhGMPabu2tR5qUus
KKj7rGr42xRvoVuZ6RF+1yw0BXQMOIE19ABv+VLoDiPKe1PgncMpZwh7d1+TOPJd
dwSniPR1XSw9+vaCNA29VjkmKrd9xAFXZqojKeqhILHME3Awu6+w1QaG07w7P4gR
9uL9xOvxLQ==
-----END CERTIFICATE-----
